target datalayout = "e-m:e-p270:32:32-p271:32:32-p272:64:64-i64:64-i128:128-f80:128-n8:16:32:64-S128"
target triple = "x86_64-pc-linux-gnu"

; Function Attrs: nounwind uwtable
define hidden i32 @mbedtls_asn1_get_len(ptr noundef %0, ptr noundef %1, ptr noundef %2) #0 {
  %4 = alloca i32, align 4
  %5 = alloca ptr, align 8
  %6 = alloca ptr, align 8
  %7 = alloca ptr, align 8
  %8 = alloca i32, align 4
  %9 = alloca i32, align 4
  store ptr %0, ptr %5, align 8, !tbaa !3
  store ptr %1, ptr %6, align 8, !tbaa !9
  store ptr %2, ptr %7, align 8, !tbaa !11
  %10 = load ptr, ptr %6, align 8, !tbaa !9
  %11 = load ptr, ptr %5, align 8, !tbaa !3
  %12 = load ptr, ptr %11, align 8, !tbaa !9
  %13 = ptrtoint ptr %10 to i64
  %14 = ptrtoint ptr %12 to i64
  %15 = sub i64 %13, %14
  %16 = icmp slt i64 %15, 1
  br i1 %16, label %17, label %18

17:                                               ; preds = %3
  store i32 -96, ptr %4, align 4
  br label %93

18:                                               ; preds = %3
  %19 = load ptr, ptr %5, align 8, !tbaa !3
  %20 = load ptr, ptr %19, align 8, !tbaa !9
  %21 = load i8, ptr %20, align 1, !tbaa !13
  %22 = zext i8 %21 to i32
  %23 = and i32 %22, 128
  %24 = icmp eq i32 %23, 0
  br i1 %24, label %25, label %32

25:                                               ; preds = %18
  %26 = load ptr, ptr %5, align 8, !tbaa !3
  %27 = load ptr, ptr %26, align 8, !tbaa !9
  %28 = getelementptr inbounds nuw i8, ptr %27, i32 1
  store ptr %28, ptr %26, align 8, !tbaa !9
  %29 = load i8, ptr %27, align 1, !tbaa !13
  %30 = zext i8 %29 to i64
  %31 = load ptr, ptr %7, align 8, !tbaa !11
  store i64 %30, ptr %31, align 8, !tbaa !14
  br label %81

32:                                               ; preds = %18
  call void @llvm.lifetime.start.p0(i64 4, ptr %8) #7
  %33 = load ptr, ptr %5, align 8, !tbaa !3
  %34 = load ptr, ptr %33, align 8, !tbaa !9
  %35 = load i8, ptr %34, align 1, !tbaa !13
  %36 = zext i8 %35 to i32
  %37 = and i32 %36, 127
  store i32 %37, ptr %8, align 4, !tbaa !16
  %38 = load i32, ptr %8, align 4, !tbaa !16
  %39 = icmp eq i32 %38, 0
  br i1 %39, label %43, label %40

40:                                               ; preds = %32
  %41 = load i32, ptr %8, align 4, !tbaa !16
  %42 = icmp sgt i32 %41, 4
  br i1 %42, label %43, label %44

43:                                               ; preds = %40, %32
  store i32 -100, ptr %4, align 4
  store i32 1, ptr %9, align 4
  br label %78

44:                                               ; preds = %40
  %45 = load ptr, ptr %6, align 8, !tbaa !9
  %46 = load ptr, ptr %5, align 8, !tbaa !3
  %47 = load ptr, ptr %46, align 8, !tbaa !9
  %48 = ptrtoint ptr %45 to i64
  %49 = ptrtoint ptr %47 to i64
  %50 = sub i64 %48, %49
  %51 = load i32, ptr %8, align 4, !tbaa !16
  %52 = sext i32 %51 to i64
  %53 = icmp sle i64 %50, %52
  br i1 %53, label %54, label %55

54:                                               ; preds = %44
  store i32 -96, ptr %4, align 4
  store i32 1, ptr %9, align 4
  br label %78

55:                                               ; preds = %44
  %56 = load ptr, ptr %7, align 8, !tbaa !11
  store i64 0, ptr %56, align 8, !tbaa !14
  %57 = load ptr, ptr %5, align 8, !tbaa !3
  %58 = load ptr, ptr %57, align 8, !tbaa !9
  %59 = getelementptr inbounds nuw i8, ptr %58, i32 1
  store ptr %59, ptr %57, align 8, !tbaa !9
  br label %60

60:                                               ; preds = %64, %55
  %61 = load i32, ptr %8, align 4, !tbaa !16
  %62 = add nsw i32 %61, -1
  store i32 %62, ptr %8, align 4, !tbaa !16
  %63 = icmp ne i32 %61, 0
  br i1 %63, label %64, label %77

64:                                               ; preds = %60
  %65 = load ptr, ptr %7, align 8, !tbaa !11
  %66 = load i64, ptr %65, align 8, !tbaa !14
  %67 = shl i64 %66, 8
  %68 = load ptr, ptr %5, align 8, !tbaa !3
  %69 = load ptr, ptr %68, align 8, !tbaa !9
  %70 = load i8, ptr %69, align 1, !tbaa !13
  %71 = zext i8 %70 to i64
  %72 = or i64 %67, %71
  %73 = load ptr, ptr %7, align 8, !tbaa !11
  store i64 %72, ptr %73, align 8, !tbaa !14
  %74 = load ptr, ptr %5, align 8, !tbaa !3
  %75 = load ptr, ptr %74, align 8, !tbaa !9
  %76 = getelementptr inbounds nuw i8, ptr %75, i32 1
  store ptr %76, ptr %74, align 8, !tbaa !9
  br label %60, !llvm.loop !18

77:                                               ; preds = %60
  store i32 0, ptr %9, align 4
  br label %78

78:                                               ; preds = %77, %54, %43
  call void @llvm.lifetime.end.p0(i64 4, ptr %8) #7
  %79 = load i32, ptr %9, align 4
  switch i32 %79, label %95 [
    i32 0, label %80
    i32 1, label %93
  ]

80:                                               ; preds = %78
  br label %81

81:                                               ; preds = %80, %25
  %82 = load ptr, ptr %7, align 8, !tbaa !11
  %83 = load i64, ptr %82, align 8, !tbaa !14
  %84 = load ptr, ptr %6, align 8, !tbaa !9
  %85 = load ptr, ptr %5, align 8, !tbaa !3
  %86 = load ptr, ptr %85, align 8, !tbaa !9
  %87 = ptrtoint ptr %84 to i64
  %88 = ptrtoint ptr %86 to i64
  %89 = sub i64 %87, %88
  %90 = icmp ugt i64 %83, %89
  br i1 %90, label %91, label %92

91:                                               ; preds = %81
  store i32 -96, ptr %4, align 4
  br label %93

92:                                               ; preds = %81
  store i32 0, ptr %4, align 4
  br label %93

93:                                               ; preds = %92, %91, %78, %17
  %94 = load i32, ptr %4, align 4
  ret i32 %94

95:                                               ; preds = %78
  unreachable
}

; Function Attrs: nounwind uwtable
define hidden i32 @mbedtls_asn1_get_tag(ptr noundef %0, ptr noundef %1, ptr noundef %2, i32 noundef %3) #0 {
  %5 = alloca i32, align 4
  %6 = alloca ptr, align 8
  %7 = alloca ptr, align 8
  %8 = alloca ptr, align 8
  %9 = alloca i32, align 4
  store ptr %0, ptr %6, align 8, !tbaa !3
  store ptr %1, ptr %7, align 8, !tbaa !9
  store ptr %2, ptr %8, align 8, !tbaa !11
  store i32 %3, ptr %9, align 4, !tbaa !16
  %10 = load ptr, ptr %7, align 8, !tbaa !9
  %11 = load ptr, ptr %6, align 8, !tbaa !3
  %12 = load ptr, ptr %11, align 8, !tbaa !9
  %13 = ptrtoint ptr %10 to i64
  %14 = ptrtoint ptr %12 to i64
  %15 = sub i64 %13, %14
  %16 = icmp slt i64 %15, 1
  br i1 %16, label %17, label %18

17:                                               ; preds = %4
  store i32 -96, ptr %5, align 4
  br label %34

18:                                               ; preds = %4
  %19 = load ptr, ptr %6, align 8, !tbaa !3
  %20 = load ptr, ptr %19, align 8, !tbaa !9
  %21 = load i8, ptr %20, align 1, !tbaa !13
  %22 = zext i8 %21 to i32
  %23 = load i32, ptr %9, align 4, !tbaa !16
  %24 = icmp ne i32 %22, %23
  br i1 %24, label %25, label %26

25:                                               ; preds = %18
  store i32 -98, ptr %5, align 4
  br label %34

26:                                               ; preds = %18
  %27 = load ptr, ptr %6, align 8, !tbaa !3
  %28 = load ptr, ptr %27, align 8, !tbaa !9
  %29 = getelementptr inbounds nuw i8, ptr %28, i32 1
  store ptr %29, ptr %27, align 8, !tbaa !9
  %30 = load ptr, ptr %6, align 8, !tbaa !3
  %31 = load ptr, ptr %7, align 8, !tbaa !9
  %32 = load ptr, ptr %8, align 8, !tbaa !11
  %33 = call i32 @mbedtls_asn1_get_len(ptr noundef %30, ptr noundef %31, ptr noundef %32)
  store i32 %33, ptr %5, align 4
  br label %34

34:                                               ; preds = %26, %25, %17
  %35 = load i32, ptr %5, align 4
  ret i32 %35
}

; Function Attrs: nounwind uwtable
define hidden i32 @mbedtls_asn1_traverse_sequence_of(ptr noundef %0, ptr noundef %1, i8 noundef zeroext %2, i8 noundef zeroext %3, i8 noundef zeroext %4, i8 noundef zeroext %5, ptr noundef %6, ptr noundef %7) #0 {
  %9 = alloca i32, align 4
  %10 = alloca ptr, align 8
  %11 = alloca ptr, align 8
  %12 = alloca i8, align 1
  %13 = alloca i8, align 1
  %14 = alloca i8, align 1
  %15 = alloca i8, align 1
  %16 = alloca ptr, align 8
  %17 = alloca ptr, align 8
  %18 = alloca i32, align 4
  %19 = alloca i64, align 8
  %20 = alloca i32, align 4
  %21 = alloca i8, align 1
  store ptr %0, ptr %10, align 8, !tbaa !3
  store ptr %1, ptr %11, align 8, !tbaa !9
  store i8 %2, ptr %12, align 1, !tbaa !13
  store i8 %3, ptr %13, align 1, !tbaa !13
  store i8 %4, ptr %14, align 1, !tbaa !13
  store i8 %5, ptr %15, align 1, !tbaa !13
  store ptr %6, ptr %16, align 8, !tbaa !32
  store ptr %7, ptr %17, align 8, !tbaa !32
  call void @llvm.lifetime.start.p0(i64 4, ptr %18) #7
  call void @llvm.lifetime.start.p0(i64 8, ptr %19) #7
  %22 = load ptr, ptr %10, align 8, !tbaa !3
  %23 = load ptr, ptr %11, align 8, !tbaa !9
  %24 = call i32 @mbedtls_asn1_get_tag(ptr noundef %22, ptr noundef %23, ptr noundef %19, i32 noundef 48)
  store i32 %24, ptr %18, align 4, !tbaa !16
  %25 = icmp ne i32 %24, 0
  br i1 %25, label %26, label %28

26:                                               ; preds = %8
  %27 = load i32, ptr %18, align 4, !tbaa !16
  store i32 %27, ptr %9, align 4
  store i32 1, ptr %20, align 4
  br label %99

28:                                               ; preds = %8
  %29 = load ptr, ptr %10, align 8, !tbaa !3
  %30 = load ptr, ptr %29, align 8, !tbaa !9
  %31 = load i64, ptr %19, align 8, !tbaa !14
  %32 = getelementptr inbounds nuw i8, ptr %30, i64 %31
  %33 = load ptr, ptr %11, align 8, !tbaa !9
  %34 = icmp ne ptr %32, %33
  br i1 %34, label %35, label %36

35:                                               ; preds = %28
  store i32 -102, ptr %9, align 4
  store i32 1, ptr %20, align 4
  br label %99

36:                                               ; preds = %28
  br label %37

37:                                               ; preds = %97, %36
  %38 = load ptr, ptr %10, align 8, !tbaa !3
  %39 = load ptr, ptr %38, align 8, !tbaa !9
  %40 = load ptr, ptr %11, align 8, !tbaa !9
  %41 = icmp ult ptr %39, %40
  br i1 %41, label %42, label %98

42:                                               ; preds = %37
  call void @llvm.lifetime.start.p0(i64 1, ptr %21) #7
  %43 = load ptr, ptr %10, align 8, !tbaa !3
  %44 = load ptr, ptr %43, align 8, !tbaa !9
  %45 = getelementptr inbounds nuw i8, ptr %44, i32 1
  store ptr %45, ptr %43, align 8, !tbaa !9
  %46 = load i8, ptr %44, align 1, !tbaa !13
  store i8 %46, ptr %21, align 1, !tbaa !13
  %47 = load i8, ptr %21, align 1, !tbaa !13
  %48 = zext i8 %47 to i32
  %49 = load i8, ptr %12, align 1, !tbaa !13
  %50 = zext i8 %49 to i32
  %51 = and i32 %48, %50
  %52 = load i8, ptr %13, align 1, !tbaa !13
  %53 = zext i8 %52 to i32
  %54 = icmp ne i32 %51, %53
  br i1 %54, label %55, label %56

55:                                               ; preds = %42
  store i32 -98, ptr %9, align 4
  store i32 1, ptr %20, align 4
  br label %95

56:                                               ; preds = %42
  %57 = load ptr, ptr %10, align 8, !tbaa !3
  %58 = load ptr, ptr %11, align 8, !tbaa !9
  %59 = call i32 @mbedtls_asn1_get_len(ptr noundef %57, ptr noundef %58, ptr noundef %19)
  store i32 %59, ptr %18, align 4, !tbaa !16
  %60 = icmp ne i32 %59, 0
  br i1 %60, label %61, label %63

61:                                               ; preds = %56
  %62 = load i32, ptr %18, align 4, !tbaa !16
  store i32 %62, ptr %9, align 4
  store i32 1, ptr %20, align 4
  br label %95

63:                                               ; preds = %56
  %64 = load i8, ptr %21, align 1, !tbaa !13
  %65 = zext i8 %64 to i32
  %66 = load i8, ptr %14, align 1, !tbaa !13
  %67 = zext i8 %66 to i32
  %68 = and i32 %65, %67
  %69 = load i8, ptr %15, align 1, !tbaa !13
  %70 = zext i8 %69 to i32
  %71 = icmp eq i32 %68, %70
  br i1 %71, label %72, label %90

72:                                               ; preds = %63
  %73 = load ptr, ptr %16, align 8, !tbaa !32
  %74 = icmp ne ptr %73, null
  br i1 %74, label %75, label %89

75:                                               ; preds = %72
  %76 = load ptr, ptr %16, align 8, !tbaa !32
  %77 = load ptr, ptr %17, align 8, !tbaa !32
  %78 = load i8, ptr %21, align 1, !tbaa !13
  %79 = zext i8 %78 to i32
  %80 = load ptr, ptr %10, align 8, !tbaa !3
  %81 = load ptr, ptr %80, align 8, !tbaa !9
  %82 = load i64, ptr %19, align 8, !tbaa !14
  %83 = call i32 %76(ptr noundef %77, i32 noundef %79, ptr noundef %81, i64 noundef %82)
  store i32 %83, ptr %18, align 4, !tbaa !16
  %84 = load i32, ptr %18, align 4, !tbaa !16
  %85 = icmp ne i32 %84, 0
  br i1 %85, label %86, label %88

86:                                               ; preds = %75
  %87 = load i32, ptr %18, align 4, !tbaa !16
  store i32 %87, ptr %9, align 4
  store i32 1, ptr %20, align 4
  br label %95

88:                                               ; preds = %75
  br label %89

89:                                               ; preds = %88, %72
  br label %90

90:                                               ; preds = %89, %63
  %91 = load i64, ptr %19, align 8, !tbaa !14
  %92 = load ptr, ptr %10, align 8, !tbaa !3
  %93 = load ptr, ptr %92, align 8, !tbaa !9
  %94 = getelementptr inbounds nuw i8, ptr %93, i64 %91
  store ptr %94, ptr %92, align 8, !tbaa !9
  store i32 0, ptr %20, align 4
  br label %95

95:                                               ; preds = %90, %86, %61, %55
  call void @llvm.lifetime.end.p0(i64 1, ptr %21) #7
  %96 = load i32, ptr %20, align 4
  switch i32 %96, label %99 [
    i32 0, label %97
  ]

97:                                               ; preds = %95
  br label %37, !llvm.loop !33

98:                                               ; preds = %37
  store i32 0, ptr %9, align 4
  store i32 1, ptr %20, align 4
  br label %99

99:                                               ; preds = %98, %95, %35, %26
  call void @llvm.lifetime.end.p0(i64 8, ptr %19) #7
  call void @llvm.lifetime.end.p0(i64 4, ptr %18) #7
  %100 = load i32, ptr %9, align 4
  ret i32 %100
}