; Function Attrs: nounwind uwtable
define hidden i32 @mbedtls_asn1_traverse_sequence_of(ptr noundef captures(none) %0, ptr noundef %1, i8 noundef zeroext %2, i8 noundef zeroext %3, i8 noundef zeroext %4, i8 noundef zeroext %5, ptr noundef readonly %6, ptr noundef %7) local_unnamed_addr #2 {
  %9 = load ptr, ptr %0, align 8, !tbaa !3
  %10 = ptrtoint ptr %1 to i64
  %11 = ptrtoint ptr %9 to i64
  %12 = sub i64 %10, %11
  %13 = icmp slt i64 %12, 1
  br i1 %13, label %mbedtls_asn1_get_tag.exit.thread, label %14

14:                                               ; preds = %8
  %15 = load i8, ptr %9, align 1, !tbaa !8
  %.not.i = icmp eq i8 %15, 48
  br i1 %.not.i, label %16, label %mbedtls_asn1_get_tag.exit.thread

16:                                               ; preds = %14
  %17 = getelementptr inbounds nuw i8, ptr %9, i64 1
  store ptr %17, ptr %0, align 8, !tbaa !3
  %18 = ptrtoint ptr %17 to i64
  %19 = sub i64 %10, %18
  %20 = icmp slt i64 %19, 1
  br i1 %20, label %mbedtls_asn1_get_tag.exit.thread, label %21

21:                                               ; preds = %16
  %22 = load i8, ptr %17, align 1, !tbaa !8
  %23 = icmp sgt i8 %22, -1
  br i1 %23, label %24, label %28

24:                                               ; preds = %21
  %25 = getelementptr inbounds nuw i8, ptr %9, i64 2
  store ptr %25, ptr %0, align 8, !tbaa !3
  %26 = load i8, ptr %17, align 1, !tbaa !8
  %27 = zext i8 %26 to i64
  br label %.loopexit.i.i

28:                                               ; preds = %21
  %29 = and i8 %22, 127
  %30 = zext nneg i8 %29 to i32
  %31 = add nsw i8 %29, -5
  %or.cond.i.i = icmp ult i8 %31, -4
  br i1 %or.cond.i.i, label %mbedtls_asn1_get_tag.exit.thread, label %32

32:                                               ; preds = %28
  %33 = zext nneg i8 %29 to i64
  %.not.i.i = icmp samesign ugt i64 %19, %33
  br i1 %.not.i.i, label %.lr.ph.preheader.i.i, label %mbedtls_asn1_get_tag.exit.thread

.lr.ph.preheader.i.i:                             ; preds = %32
  %storemerge32.i.i = getelementptr inbounds nuw i8, ptr %9, i64 2
  store ptr %storemerge32.i.i, ptr %0, align 8, !tbaa !3
  br label %.lr.ph.i.i

.lr.ph.i.i:                                       ; preds = %.lr.ph.i.i, %.lr.ph.preheader.i.i
  %storemerge36.i.i = phi ptr [ %storemerge.i.i, %.lr.ph.i.i ], [ %storemerge32.i.i, %.lr.ph.preheader.i.i ]
  %.02335.i.i = phi i32 [ %34, %.lr.ph.i.i ], [ %30, %.lr.ph.preheader.i.i ]
  %storemerge3134.i.i = phi i64 [ %38, %.lr.ph.i.i ], [ 0, %.lr.ph.preheader.i.i ]
  %34 = add nsw i32 %.02335.i.i, -1
  %35 = shl i64 %storemerge3134.i.i, 8
  %36 = load i8, ptr %storemerge36.i.i, align 1, !tbaa !8
  %37 = zext i8 %36 to i64
  %38 = or disjoint i64 %35, %37
  %storemerge.i.i = getelementptr inbounds nuw i8, ptr %storemerge36.i.i, i64 1
  store ptr %storemerge.i.i, ptr %0, align 8, !tbaa !3
  %.not27.i.i = icmp eq i32 %34, 0
  br i1 %.not27.i.i, label %.loopexit.i.i, label %.lr.ph.i.i, !llvm.loop !11

.loopexit.i.i:                                    ; preds = %.lr.ph.i.i, %24
  %.243 = phi i64 [ %27, %24 ], [ %38, %.lr.ph.i.i ]
  %39 = phi ptr [ %25, %24 ], [ %storemerge.i.i, %.lr.ph.i.i ]
  %40 = ptrtoint ptr %39 to i64
  %41 = sub i64 %10, %40
  %42 = icmp ugt i64 %.243, %41
  br i1 %42, label %mbedtls_asn1_get_tag.exit.thread, label %mbedtls_asn1_get_tag.exit

mbedtls_asn1_get_tag.exit:                        ; preds = %.loopexit.i.i
  %43 = getelementptr inbounds nuw i8, ptr %39, i64 %.243
  %.not34 = icmp eq ptr %43, %1
  br i1 %.not34, label %.preheader, label %mbedtls_asn1_get_tag.exit.thread

.preheader:                                       ; preds = %mbedtls_asn1_get_tag.exit
  %44 = icmp ult ptr %39, %1
  br i1 %44, label %.lr.ph, label %mbedtls_asn1_get_tag.exit.thread

.lr.ph:                                           ; preds = %.preheader
  %.not = icmp eq ptr %6, null
  br i1 %.not, label %.lr.ph.split.us, label %.lr.ph.split

.lr.ph.split.us:                                  ; preds = %.lr.ph, %mbedtls_asn1_get_len.exit.us
  %45 = phi ptr [ %75, %mbedtls_asn1_get_len.exit.us ], [ %39, %.lr.ph ]
  %46 = getelementptr inbounds nuw i8, ptr %45, i64 1
  store ptr %46, ptr %0, align 8, !tbaa !3
  %47 = load i8, ptr %45, align 1, !tbaa !8
  %48 = and i8 %47, %2
  %.not35.us = icmp eq i8 %48, %3
  br i1 %.not35.us, label %49, label %mbedtls_asn1_get_tag.exit.thread

49:                                               ; preds = %.lr.ph.split.us
  %50 = ptrtoint ptr %46 to i64
  %51 = sub i64 %10, %50
  %52 = icmp slt i64 %51, 1
  br i1 %52, label %mbedtls_asn1_get_tag.exit.thread, label %53

53:                                               ; preds = %49
  %54 = load i8, ptr %46, align 1, !tbaa !8
  %55 = icmp sgt i8 %54, -1
  br i1 %55, label %67, label %56

56:                                               ; preds = %53
  %57 = and i8 %54, 127
  %58 = zext nneg i8 %57 to i32
  %59 = add nsw i8 %57, -5
  %or.cond.i.us = icmp ult i8 %59, -4
  br i1 %or.cond.i.us, label %mbedtls_asn1_get_tag.exit.thread, label %60

60:                                               ; preds = %56
  %61 = zext nneg i8 %57 to i64
  %.not.i38.us = icmp samesign ugt i64 %51, %61
  br i1 %.not.i38.us, label %.lr.ph.preheader.i.us, label %mbedtls_asn1_get_tag.exit.thread

.lr.ph.preheader.i.us:                            ; preds = %60
  %storemerge32.i.us = getelementptr inbounds nuw i8, ptr %45, i64 2
  store ptr %storemerge32.i.us, ptr %0, align 8, !tbaa !3
  br label %.lr.ph.i.us

.lr.ph.i.us:                                      ; preds = %.lr.ph.i.us, %.lr.ph.preheader.i.us
  %storemerge36.i.us = phi ptr [ %storemerge.i.us, %.lr.ph.i.us ], [ %storemerge32.i.us, %.lr.ph.preheader.i.us ]
  %.02335.i.us = phi i32 [ %62, %.lr.ph.i.us ], [ %58, %.lr.ph.preheader.i.us ]
  %storemerge3134.i.us = phi i64 [ %66, %.lr.ph.i.us ], [ 0, %.lr.ph.preheader.i.us ]
  %62 = add nsw i32 %.02335.i.us, -1
  %63 = shl i64 %storemerge3134.i.us, 8
  %64 = load i8, ptr %storemerge36.i.us, align 1, !tbaa !8
  %65 = zext i8 %64 to i64
  %66 = or disjoint i64 %63, %65
  %storemerge.i.us = getelementptr inbounds nuw i8, ptr %storemerge36.i.us, i64 1
  store ptr %storemerge.i.us, ptr %0, align 8, !tbaa !3
  %.not27.i.us = icmp eq i32 %62, 0
  br i1 %.not27.i.us, label %.loopexit.i.us, label %.lr.ph.i.us, !llvm.loop !11

67:                                               ; preds = %53
  %68 = getelementptr inbounds nuw i8, ptr %45, i64 2
  store ptr %68, ptr %0, align 8, !tbaa !3
  %69 = load i8, ptr %46, align 1, !tbaa !8
  %70 = zext i8 %69 to i64
  br label %.loopexit.i.us

.loopexit.i.us:                                   ; preds = %.lr.ph.i.us, %67
  %71 = phi ptr [ %68, %67 ], [ %storemerge.i.us, %.lr.ph.i.us ]
  %.4.us = phi i64 [ %70, %67 ], [ %66, %.lr.ph.i.us ]
  %72 = ptrtoint ptr %71 to i64
  %73 = sub i64 %10, %72
  %74 = icmp ugt i64 %.4.us, %73
  br i1 %74, label %mbedtls_asn1_get_tag.exit.thread, label %mbedtls_asn1_get_len.exit.us

mbedtls_asn1_get_len.exit.us:                     ; preds = %.loopexit.i.us
  %75 = getelementptr inbounds nuw i8, ptr %71, i64 %.4.us
  store ptr %75, ptr %0, align 8, !tbaa !3
  %76 = icmp ult ptr %75, %1
  br i1 %76, label %.lr.ph.split.us, label %mbedtls_asn1_get_tag.exit.thread, !llvm.loop !21

.lr.ph.split:                                     ; preds = %.lr.ph, %112
  %77 = phi ptr [ %114, %112 ], [ %39, %.lr.ph ]
  %78 = getelementptr inbounds nuw i8, ptr %77, i64 1
  store ptr %78, ptr %0, align 8, !tbaa !3
  %79 = load i8, ptr %77, align 1, !tbaa !8
  %80 = zext i8 %79 to i32
  %81 = and i8 %79, %2
  %.not35 = icmp eq i8 %81, %3
  br i1 %.not35, label %82, label %mbedtls_asn1_get_tag.exit.thread

82:                                               ; preds = %.lr.ph.split
  %83 = ptrtoint ptr %78 to i64
  %84 = sub i64 %10, %83
  %85 = icmp slt i64 %84, 1
  br i1 %85, label %mbedtls_asn1_get_tag.exit.thread, label %86

86:                                               ; preds = %82
  %87 = load i8, ptr %78, align 1, !tbaa !8
  %88 = icmp sgt i8 %87, -1
  br i1 %88, label %89, label %93

89:                                               ; preds = %86
  %90 = getelementptr inbounds nuw i8, ptr %77, i64 2
  store ptr %90, ptr %0, align 8, !tbaa !3
  %91 = load i8, ptr %78, align 1, !tbaa !8
  %92 = zext i8 %91 to i64
  br label %.loopexit.i

93:                                               ; preds = %86
  %94 = and i8 %87, 127
  %95 = zext nneg i8 %94 to i32
  %96 = add nsw i8 %94, -5
  %or.cond.i = icmp ult i8 %96, -4
  br i1 %or.cond.i, label %mbedtls_asn1_get_tag.exit.thread, label %97

97:                                               ; preds = %93
  %98 = zext nneg i8 %94 to i64
  %.not.i38 = icmp samesign ugt i64 %84, %98
  br i1 %.not.i38, label %.lr.ph.preheader.i, label %mbedtls_asn1_get_tag.exit.thread

.lr.ph.preheader.i:                               ; preds = %97
  %storemerge32.i = getelementptr inbounds nuw i8, ptr %77, i64 2
  store ptr %storemerge32.i, ptr %0, align 8, !tbaa !3
  br label %.lr.ph.i

.lr.ph.i:                                         ; preds = %.lr.ph.i, %.lr.ph.preheader.i
  %storemerge36.i = phi ptr [ %storemerge.i, %.lr.ph.i ], [ %storemerge32.i, %.lr.ph.preheader.i ]
  %.02335.i = phi i32 [ %99, %.lr.ph.i ], [ %95, %.lr.ph.preheader.i ]
  %storemerge3134.i = phi i64 [ %103, %.lr.ph.i ], [ 0, %.lr.ph.preheader.i ]
  %99 = add nsw i32 %.02335.i, -1
  %100 = shl i64 %storemerge3134.i, 8
  %101 = load i8, ptr %storemerge36.i, align 1, !tbaa !8
  %102 = zext i8 %101 to i64
  %103 = or disjoint i64 %100, %102
  %storemerge.i = getelementptr inbounds nuw i8, ptr %storemerge36.i, i64 1
  store ptr %storemerge.i, ptr %0, align 8, !tbaa !3
  %.not27.i = icmp eq i32 %99, 0
  br i1 %.not27.i, label %.loopexit.i, label %.lr.ph.i, !llvm.loop !11

.loopexit.i:                                      ; preds = %.lr.ph.i, %89
  %.4 = phi i64 [ %92, %89 ], [ %103, %.lr.ph.i ]
  %104 = phi ptr [ %90, %89 ], [ %storemerge.i, %.lr.ph.i ]
  %105 = ptrtoint ptr %104 to i64
  %106 = sub i64 %10, %105
  %107 = icmp ugt i64 %.4, %106
  br i1 %107, label %mbedtls_asn1_get_tag.exit.thread, label %mbedtls_asn1_get_len.exit

mbedtls_asn1_get_len.exit:                        ; preds = %.loopexit.i
  %108 = and i8 %79, %4
  %109 = icmp eq i8 %108, %5
  br i1 %109, label %110, label %112

110:                                              ; preds = %mbedtls_asn1_get_len.exit
  %111 = tail call i32 %6(ptr noundef %7, i32 noundef %80, ptr noundef nonnull %104, i64 noundef %.4) #10
  %.not37 = icmp eq i32 %111, 0
  br i1 %.not37, label %._crit_edge, label %mbedtls_asn1_get_tag.exit.thread

._crit_edge:                                      ; preds = %110
  %.pre = load ptr, ptr %0, align 8, !tbaa !3
  br label %112

112:                                              ; preds = %._crit_edge, %mbedtls_asn1_get_len.exit
  %113 = phi ptr [ %.pre, %._crit_edge ], [ %104, %mbedtls_asn1_get_len.exit ]
  %114 = getelementptr inbounds nuw i8, ptr %113, i64 %.4
  store ptr %114, ptr %0, align 8, !tbaa !3
  %115 = icmp ult ptr %114, %1
  br i1 %115, label %.lr.ph.split, label %mbedtls_asn1_get_tag.exit.thread, !llvm.loop !21

mbedtls_asn1_get_tag.exit.thread:                 ; preds = %112, %.lr.ph.split, %110, %82, %97, %93, %.loopexit.i, %mbedtls_asn1_get_len.exit.us, %.lr.ph.split.us, %49, %60, %56, %.loopexit.i.us, %.preheader, %.loopexit.i.i, %28, %32, %16, %14, %8, %mbedtls_asn1_get_tag.exit
  %.0 = phi i32 [ -102, %mbedtls_asn1_get_tag.exit ], [ -100, %28 ], [ -96, %32 ], [ -96, %16 ], [ -98, %14 ], [ -96, %8 ], [ -96, %.loopexit.i.i ], [ 0, %.preheader ], [ 0, %mbedtls_asn1_get_len.exit.us ], [ -98, %.lr.ph.split.us ], [ -96, %49 ], [ -96, %60 ], [ -100, %56 ], [ -96, %.loopexit.i.us ], [ 0, %112 ], [ -98, %.lr.ph.split ], [ %111, %110 ], [ -96, %82 ], [ -96, %97 ], [ -100, %93 ], [ -96, %.loopexit.i ]
  ret i32 %.0
}